c__builtin__
set
p1
((lp2
V140149
p3
aV132648
p4
aV137828
p5
aV132642
p6
aV132644
p7
aV133406
p8
aV141301
p9
aV139559
p10
aV141302
p11
aV141306
p12
aV139550
p13
aV139556
p14
aV142304
p15
aV140091
p16
aV140097
p17
aV140547
p18
aV135775
p19
aV135589
p20
aV138736
p21
aV138730
p22
aV139156
p23
aV140890
p24
aV139153
p25
aV139152
p26
aV140354
p27
aV141235
p28
aV141231
p29
aV141230
p30
aV139159
p31
aV139158
p32
aV140351
p33
aV135102
p34
aV135104
p35
aV139487
p36
aV135107
p37
aV135363
p38
aV139803
p39
aV139802
p40
aV135693
p41
aV132573
p42
aV139227
p43
aV138608
p44
aV141434
p45
aV141432
p46
aV141430
p47
aV138603
p48
aV134186
p49
aV134185
p50
aV140430
p51
aV141945
p52
aV141944
p53
aV141943
p54
aV140437
p55
aV134613
p56
aV140439
p57
aV135219
p58
aV134342
p59
aV134165
p60
aV135416
p61
aV138192
p62
aV138193
p63
aV134161
p64
aV134160
p65
aV138197
p66
aV133693
p67
aV132958
p68
aV133696
p69
aV133347
p70
aV139938
p71
aV135415
p72
aV137881
p73
aV135966
p74
aV135967
p75
aV135964
p76
aV138042
p77
aV138043
p78
aV133748
p79
aV138511
p80
aV142027
p81
aV138045
p82
aV142029
p83
aV133746
p84
aV138518
p85
aV134504
p86
aV141051
p87
aV134500
p88
aV139023
p89
aV141058
p90
aV138998
p91
aV137088
p92
aV138994
p93
aV132902
p94
aV132907
p95
aV132906
p96
aV134763
p97
aV142158
p98
aV134765
p99
aV138467
p100
aV142152
p101
aV137268
p102
aV137262
p103
aV142485
p104
aV142484
p105
aV136848
p106
aV142378
p107
aV137643
p108
aV133527
p109
aV136840
p110
aV137648
p111
aV133528
p112
aV137868
p113
aV136846
p114
aV132832
p115
aV136115
p116
aV136112
p117
aV136113
p118
aV136111
p119
aV137464
p120
aV136591
p121
aV136597
p122
aV139915
p123
aV142573
p124
aV142572
p125
aV142570
p126
aV142577
p127
aV142574
p128
aV142579
p129
aV142578
p130
aV137515
p131
aV137514
p132
aV137517
p133
aV136029
p134
aV137518
p135
aV136024
p136
aV133834
p137
aV141177
p138
aV136931
p139
aV136336
p140
aV136332
p141
aV134568
p142
aV140152
p143
aV141073
p144
aV142188
p145
aV135021
p146
aV140080
p147
aV140086
p148
aV138729
p149
aV138727
p150
aV138726
p151
aV138725
p152
aV138724
p153
aV140333
p154
aV140332
p155
aV139126
p156
aV140335
p157
aV135110
p158
aV140889
p159
aV140888
p160
aV141207
p161
aV139838
p162
aV141592
p163
aV135375
p164
aV135374
p165
aV141840
p166
aV138616
p167
aV138615
p168
aV135688
p169
aV135682
p170
aV141447
p171
aV141112
p172
aV141113
p173
aV141119
p174
aV135203
p175
aV139583
p176
aV141680
p177
aV139239
p178
aV135758
p179
aV139235
p180
aV141688
p181
aV134376
p182
aV139231
p183
aV134150
p184
aV134151
p185
aV134408
p186
aV134157
p187
aV134159
p188
aV134404
p189
aV133682
p190
aV138183
p191
aV138180
p192
aV135623
p193
aV135971
p194
aV135973
p195
aV135972
p196
aV138057
p197
aV133751
p198
aV142010
p199
aV142011
p200
aV138292
p201
aV139058
p202
aV134576
p203
aV138295
p204
aV141068
p205
aV139053
p206
aV139056
p207
aV137079
p208
aV137076
p209
aV137072
p210
aV137073
p211
aV137989
p212
aV132934
p213
aV132936
p214
aV134886
p215
aV132933
p216
aV142169
p217
aV134796
p218
aV138476
p219
aV134794
p220
aV138470
p221
aV133228
p222
aV133223
p223
aV133220
p224
aV142077
p225
aV137187
p226
aV137185
p227
aV136852
p228
aV137856
p229
aV133534
p230
aV137674
p231
aV137675
p232
aV132805
p233
aV137454
p234
aV136108
p235
aV137453
p236
aV136104
p237
aV137458
p238
aV137459
p239
aV137692
p240
aV141233
p241
aV136616
p242
aV136618
p243
aV137521
p244
aV136031
p245
aV132791
p246
aV136033
p247
aV136032
p248
aV136037
p249
aV136925
p250
aV136924
p251
aV136920
p252
aV132664
p253
aV132666
p254
aV136329
p255
aV135444
p256
aV137920
p257
aV141327
p258
aV142356
p259
aV136824
p260
aV135569
p261
aV139492
p262
aV141214
p263
aV141213
p264
aV141218
p265
aV135162
p266
aV135160
p267
aV139135
p268
aV139136
p269
aV140639
p270
aV140853
p271
aV141857
p272
aV141583
p273
aV135304
p274
aV138666
p275
aV138667
p276
aV134366
p277
aV141101
p278
aV134364
p279
aV141457
p280
aV140988
p281
aV135769
p282
aV141927
p283
aV140452
p284
aV140982
p285
aV140983
p286
aV139223
p287
aV139590
p288
aV135944
p289
aV135417
p290
aV139910
p291
aV135410
p292
aV135411
p293
aV134147
p294
aV134416
p295
aV134411
p296
aV135787
p297
aV134965
p298
aV135788
p299
aV135789
p300
aV135742
p301
aV134093
p302
aV142008
p303
aV138068
p304
aV134098
p305
aV138066
p306
aV142000
p307
aV138062
p308
aV139824
p309
aV139822
p310
aV134567
p311
aV141076
p312
aV138262
p313
aV138261
p314
aV138082
p315
aV137068
p316
aV133786
p317
aV133789
p318
aV141120
p319
aV139322
p320
aV132923
p321
aV132922
p322
aV134893
p323
aV134892
p324
aV134894
p325
aV133322
p326
aV133320
p327
aV138409
p328
aV133327
p329
aV134614
p330
aV134780
p331
aV138404
p332
aV134782
p333
aV138065
p334
aV133259
p335
aV138882
p336
aV137190
p337
aV137193
p338
aV137196
p339
aV142352
p340
aV132814
p341
aV132812
p342
aV132811
p343
aV142359
p344
aV132819
p345
aV138316
p346
aV137669
p347
aV138312
p348
aV137849
p349
aV137848
p350
aV137661
p351
aV137842
p352
aV137443
p353
aV137331
p354
aV137444
p355
aV136130
p356
aV137448
p357
aV137339
p358
aV137688
p359
aV134869
p360
aV142595
p361
aV136626
p362
aV136552
p363
aV132780
p364
aV137537
p365
aV137535
p366
aV133811
p367
aV133812
p368
aV139934
p369
aV136951
p370
aV136484
p371
aV138514
p372
aV142020
p373
aV136316
p374
aV142025
p375
aV136726
p376
aV140536
p377
aV136003
p378
aV138287
p379
aV134503
p380
aV140607
p381
aV135573
p382
aV141263
p383
aV139698
p384
aV141268
p385
aV139108
p386
aV135176
p387
aV139104
p388
aV139452
p389
aV139453
p390
aV139102
p391
aV134461
p392
aV138123
p393
aV140197
p394
aV140627
p395
aV140626
p396
aV140193
p397
aV140192
p398
aV140190
p399
aV141868
p400
aV141869
p401
aV135313
p402
aV140849
p403
aV140848
p404
aV138671
p405
aV138673
p406
aV138679
p407
aV134311
p408
aV134316
p409
aV140992
p410
aV140999
p411
aV140449
p412
aV141669
p413
aV140441
p414
aV141667
p415
aV141665
p416
aV141662
p417
aV141663
p418
aV139216
p419
aV135952
p420
aV141482
p421
aV135402
p422
aV134420
p423
aV134133
p424
aV134130
p425
aV134136
p426
aV135794
p427
aV135798
p428
aV134957
p429
aV139075
p430
aV139077
p431
aV139070
p432
aV139073
p433
aV138073
p434
aV138072
p435
aV138077
p436
aV141000
p437
aV139859
p438
aV134223
p439
aV134552
p440
aV137059
p441
aV134043
p442
aV133023
p443
aV137057
p444
aV142290
p445
aV142103
p446
aV142106
p447
aV138419
p448
aV138418
p449
aV141712
p450
aV138412
p451
aV133243
p452
aV138893
p453
aV134603
p454
aV132863
p455
aV132860
p456
aV132866
p457
aV136834
p458
aV132865
p459
aV136838
p460
aV139781
p461
aV138303
p462
aV142612
p463
aV138308
p464
aV137304
p465
aV137305
p466
aV138349
p467
aV136638
p468
aV137233
p469
aV136633
p470
aV136634
p471
aV136547
p472
aV138466
p473
aV136015
p474
aV137549
p475
aV139087
p476
aV136497
p477
aV134523
p478
aV136499
p479
aV133800
p480
aV136941
p481
aV135733
p482
aV136308
p483
aV136306
p484
aV132685
p485
aV132683
p486
aV138863
p487
aV140296
p488
aV140054
p489
aV140502
p490
aV135548
p491
aV134932
p492
aV135092
p493
aV135542
p494
aV135543
p495
aV135547
p496
aV139689
p497
aV141275
p498
aV141274
p499
aV141279
p500
aV139682
p501
aV139687
p502
aV139119
p503
aV139113
p504
aV135145
p505
aV139447
p506
aV139110
p507
aV139441
p508
aV135141
p509
aV134295
p510
aV140872
p511
aV138648
p512
aV138649
p513
aV134290
p514
aV141479
p515
aV140472
p516
aV134309
p517
aV134308
p518
aV140276
p519
aV141909
p520
aV140278
p521
aV140279
p522
aV141497
p523
aV141496
p524
aV134942
p525
aV141493
p526
aV134940
p527
aV135439
p528
aV141499
p529
aV137865
p530
aV141892
p531
aV139069
p532
aV139068
p533
aV137867
p534
aV138248
p535
aV137642
p536
aV141873
p537
aV134238
p538
aV139847
p539
aV141870
p540
aV134235
p541
aV139848
p542
aV138791
p543
aV141016
p544
aV134055
p545
aV134051
p546
aV133016
p547
aV142281
p548
aV132835
p549
aV142286
p550
aV142111
p551
aV142112
p552
aV138420
p553
aV142114
p554
aV133494
p555
aV133495
p556
aV133492
p557
aV132830
p558
aV141704
p559
aV141702
p560
aV133304
p561
aV133657
p562
aV133302
p563
aV133303
p564
aV133473
p565
aV133478
p566
aV132877
p567
aV132878
p568
aV141800
p569
aV138331
p570
aV142607
p571
aV142603
p572
aV137048
p573
aV142427
p574
aV135887
p575
aV142422
p576
aV137316
p577
aV142428
p578
aV138937
p579
aV138935
p580
aV136506
p581
aV132539
p582
aV133270
p583
aV137224
p584
aV137228
p585
aV136571
p586
aV136577
p587
aV136578
p588
aV136579
p589
aV137552
p590
aV137556
p591
aV136975
p592
aV136971
p593
aV136973
p594
aV133877
p595
aV133874
p596
aV133875
p597
aV136151
p598
aV136154
p599
aV134746
p600
aV136375
p601
aV133906
p602
aV139958
p603
aV136204
p604
aV136202
p605
aV136200
p606
aV140519
p607
aV140048
p608
aV140512
p609
aV140511
p610
aV140517
p611
aV135089
p612
aV135083
p613
aV135084
p614
aV141245
p615
aV141246
p616
aV139478
p617
aV140604
p618
aV139474
p619
aV140862
p620
aV140861
p621
aV138658
p622
aV138652
p623
aV138655
p624
aV134330
p625
aV141733
p626
aV140261
p627
aV140263
p628
aV140262
p629
aV141641
p630
aV141395
p631
aV134684
p632
aV134685
p633
aV134934
p634
aV134683
p635
aV135427
p636
aV135426
p637
aV134689
p638
aV138257
p639
aV141026
p640
aV138253
p641
aV139098
p642
aV139099
p643
aV139093
p644
aV141803
p645
aV135331
p646
aV135885
p647
aV135336
p648
aV139308
p649
aV138781
p650
aV134203
p651
aV134205
p652
aV139301
p653
aV141610
p654
aV134066
p655
aV134069
p656
aV139101
p657
aV134590
p658
aV134594
p659
aV134595
p660
aV134849
p661
aV134599
p662
aV134842
p663
aV139899
p664
aV133489
p665
aV133488
p666
aV138437
p667
aV138436
p668
aV138435
p669
aV133481
p670
aV133487
p671
aV132992
p672
aV141732
p673
aV134441
p674
aV134110
p675
aV134112
p676
aV141739
p677
aV134119
p678
aV133643
p679
aV140628
p680
aV133463
p681
aV137146
p682
aV137142
p683
aV137144
p684
aV137145
p685
aV132996
p686
aV132995
p687
aV137141
p688
aV132848
p689
aV137813
p690
aV132844
p691
aV132845
p692
aV142383
p693
aV142384
p694
aV132842
p695
aV137031
p696
aV137037
p697
aV137035
p698
aV137038
p699
aV142634
p700
aV136782
p701
aV136786
p702
aV137490
p703
aV137363
p704
aV136788
p705
aV137364
p706
aV137497
p707
aV138923
p708
aV138922
p709
aV138928
p710
aV137960
p711
aV133261
p712
aV137963
p713
aV142252
p714
aV133268
p715
aV134234
p716
aV136569
p717
aV136565
p718
aV137568
p719
aV137765
p720
aV137763
p721
aV137769
p722
aV136967
p723
aV136965
p724
aV133863
p725
aV142224
p726
aV133865
p727
aV136368
p728
aV142386
p729
aV136361
p730
aV136363
p731
aV136364
p732
aV133913
p733
aV133912
p734
aV137139
p735
aV133390
p736
aV133004
p737
aV138328
p738
aV134259
p739
aV136215
p740
aV138325
p741
aV132732
p742
aV140070
p743
aV140071
p744
aV140074
p745
aV134250
p746
aV137499
p747
aV140382
p748
aV140380
p749
aV139464
p750
aV139463
p751
aV140389
p752
aV141255
p753
aV142415
p754
aV140673
p755
aV140674
p756
aV140334
p757
aV140364
p758
aV140365
p759
aV137493
p760
aV135638
p761
aV139791
p762
aV139210
p763
aV139794
p764
aV139796
p765
aV139799
p766
aV139798
p767
aV141655
p768
aV135770
p769
aV140497
p770
aV141658
p771
aV135522
p772
aV140255
p773
aV140706
p774
aV141387
p775
aV134692
p776
aV135458
p777
aV134695
p778
aV134694
p779
aV135452
p780
aV135981
p781
aV135982
p782
aV135984
p783
aV135454
p784
aV135957
p785
aV134213
p786
aV141035
p787
aV138225
p788
aV138228
p789
aV139086
p790
aV139082
p791
aV139869
p792
aV141812
p793
aV139649
p794
aV139647
p795
aV139861
p796
aV139644
p797
aV135959
p798
aV137396
p799
aV139880
p800
aV134589
p801
aV134585
p802
aV134582
p803
aV135858
p804
aV142133
p805
aV134453
p806
aV134100
p807
aV138687
p808
aV134459
p809
aV133671
p810
aV133672
p811
aV133675
p812
aV133109
p813
aV133106
p814
aV133104
p815
aV137152
p816
aV142391
p817
aV137803
p818
aV142256
p819
aV133587
p820
aV142621
p821
aV133585
p822
aV132852
p823
aV142254
p824
aV137021
p825
aV137020
p826
aV138358
p827
aV133071
p828
aV137025
p829
aV138350
p830
aV133079
p831
aV137378
p832
aV142402
p833
aV138914
p834
aV136864
p835
aV142247
p836
aV137798
p837
aV142241
p838
aV133298
p839
aV133295
p840
aV137570
p841
aV137576
p842
aV136512
p843
aV137578
p844
aV136516
p845
aV133851
p846
aV133852
p847
aV136680
p848
aV136686
p849
aV133859
p850
aV136996
p851
aV136995
p852
aV136992
p853
aV136993
p854
aV136990
p855
aV137487
p856
aV136178
p857
aV136177
p858
aV136354
p859
aV136356
p860
aV136350
p861
aV141163
p862
aV136420
p863
aV136358
p864
aV136197
p865
aV136190
p866
aV134557
p867
aV133924
p868
aV134551
p869
aV139771
p870
aV135491
p871
aV140065
p872
aV140063
p873
aV140060
p874
aV136229
p875
aV132726
p876
aV132721
p877
aV132729
p878
aV139214
p879
aV139412
p880
aV141693
p881
aV139411
p882
aV133790
p883
aV140660
p884
aV140662
p885
aV140665
p886
aV140668
p887
aV135199
p888
aV135197
p889
aV135195
p890
aV135194
p891
aV140807
p892
aV139259
p893
aV141624
p894
aV139529
p895
aV139254
p896
aV139255
p897
aV141629
p898
aV140480
p899
aV139520
p900
aV135534
p901
aV140249
p902
aV140247
p903
aV140245
p904
aV140244
p905
aV140710
p906
aV140712
p907
aV135449
p908
aV134914
p909
aV134915
p910
aV135443
p911
aV135442
p912
aV135445
p913
aV134911
p914
aV135447
p915
aV138230
p916
aV134268
p917
aV139328
p918
aV141828
p919
aV139632
p920
aV141289
p921
aV141826
p922
aV141821
p923
aV141822
p924
aV139140
p925
aV134007
p926
aV135844
p927
aV138391
p928
aV134866
p929
aV133663
p930
aV135994
p931
aV135993
p932
aV135992
p933
aV138698
p934
aV141752
p935
aV134465
p936
aV141750
p937
aV138692
p938
aV138691
p939
aV139122
p940
aV134712
p941
aV134713
p942
aV134718
p943
aV134719
p944
aV134486
p945
aV133592
p946
aV142654
p947
aV133599
p948
aV142659
p949
aV133061
p950
aV141200
p951
aV133062
p952
aV133064
p953
aV137014
p954
aV138340
p955
aV138343
p956
aV138342
p957
aV136765
p958
aV132744
p959
aV136763
p960
aV133563
p961
aV138905
p962
aV133289
p963
aV137903
p964
aV133286
p965
aV137904
p966
aV142506
p967
aV142504
p968
aV137588
p969
aV142501
p970
aV137586
p971
aV136503
p972
aV136502
p973
aV137583
p974
aV137581
p975
aV133843
p976
aV137741
p977
aV133841
p978
aV137743
p979
aV133247
p980
aV137746
p981
aV136692
p982
aV136695
p983
aV136694
p984
aV136985
p985
aV136980
p986
aV136982
p987
aV136169
p988
aV137341
p989
aV136162
p990
aV136343
p991
aV136432
p992
aV136348
p993
aV135275
p994
aV133932
p995
aV133930
p996
aV134675
p997
aV140012
p998
aV135371
p999
aV136239
p1000
aV137937
p1001
aV136234
p1002
aV136230
p1003
aV132710
p1004
aV132717
p1005
aV137934
p1006
aV139401
p1007
aV139400
p1008
aV139403
p1009
aV139402
p1010
aV139404
p1011
aV140657
p1012
aV140651
p1013
aV133146
p1014
aV135610
p1015
aV135613
p1016
aV135616
p1017
aV135232
p1018
aV141111
p1019
aV141444
p1020
aV133418
p1021
aV134276
p1022
aV139246
p1023
aV139244
p1024
aV135056
p1025
aV135057
p1026
aV135506
p1027
aV135052
p1028
aV140235
p1029
aV140901
p1030
aV134908
p1031
aV135273
p1032
aV140908
p1033
aV138752
p1034
aV134901
p1035
aV134676
p1036
aV134904
p1037
aV138592
p1038
aV142433
p1039
aV139629
p1040
aV134272
p1041
aV134274
p1042
aV139330
p1043
aV134278
p1044
aV138754
p1045
aV138200
p1046
aV140834
p1047
aV140830
p1048
aV140343
p1049
aV140340
p1050
aV140341
p1051
aV141832
p1052
aV141295
p1053
aV141294
p1054
aV140839
p1055
aV141523
p1056
aV141290
p1057
aV134877
p1058
aV134875
p1059
aV134872
p1060
aV134871
p1061
aV136642
p1062
aV135874
p1063
aV134371
p1064
aV135879
p1065
aV133619
p1066
aV141836
p1067
aV141749
p1068
aV141748
p1069
aV135472
p1070
aV139752
p1071
aV139626
p1072
aV135478
p1073
aV139758
p1074
aV134474
p1075
aV134707
p1076
aV139905
p1077
aV133432
p1078
aV133433
p1079
aV133430
p1080
aV134708
p1081
aV133126
p1082
aV133127
p1083
aV134497
p1084
aV134496
p1085
aV134490
p1086
aV142641
p1087
aV142640
p1088
aV138376
p1089
aV142649
p1090
aV136424
p1091
aV137008
p1092
aV138573
p1093
aV133728
p1094
aV137003
p1095
aV142088
p1096
aV137005
p1097
aV133546
p1098
aV133544
p1099
aV138184
p1100
aV133540
p1101
aV142463
p1102
aV132894
p1103
aV132892
p1104
aV142467
p1105
aV138972
p1106
aV138975
p1107
aV137176
p1108
aV137914
p1109
aV142260
p1110
aV137598
p1111
aV137594
p1112
aV142519
p1113
aV137593
p1114
aV137592
p1115
aV138801
p1116
aV137756
p1117
aV137750
p1118
aV138017
p1119
aV136401
p1120
aV136407
p1121
aV136883
p1122
aV138505
p1123
aV133946
p1124
aV136533
p1125
aV136538
p1126
aV140001
p1127
aV140003
p1128
aV140005
p1129
aV140009
p1130
aV136240
p1131
aV136246
p1132
aV136540
p1133
aV135474
p1134
aV136543
p1135
aV136302
p1136
aV141062
p1137
aV132700
p1138
aV139469
p1139
aV139438
p1140
aV139430
p1141
aV139431
p1142
aV139433
p1143
aV140649
p1144
aV141742
p1145
aV140139
p1146
aV140641
p1147
aV140646
p1148
aV140645
p1149
aV138117
p1150
aV133963
p1151
aV141195
p1152
aV141196
p1153
aV140774
p1154
aV140734
p1155
aV140733
p1156
aV141359
p1157
aV139501
p1158
aV141354
p1159
aV141607
p1160
aV139505
p1161
aV135284
p1162
aV140229
p1163
aV133120
p1164
aV135513
p1165
aV135510
p1166
aV135517
p1167
aV141994
p1168
aV134398
p1169
aV134399
p1170
aV141991
p1171
aV140915
p1172
aV141999
p1173
aV139841
p1174
aV134647
p1175
aV138583
p1176
aV138581
p1177
aV138584
p1178
aV139342
p1179
aV139613
p1180
aV134244
p1181
aV138210
p1182
aV134240
p1183
aV138215
p1184
aV140355
p1185
aV141519
p1186
aV140827
p1187
aV141513
p1188
aV141516
p1189
aV134802
p1190
aV134800
p1191
aV134801
p1192
aV134807
p1193
aV141959
p1194
aV136498
p1195
aV141775
p1196
aV133605
p1197
aV133607
p1198
aV133609
p1199
aV133608
p1200
aV141779
p1201
aV138108
p1202
aV135463
p1203
aV139761
p1204
aV141174
p1205
aV139763
p1206
aV141172
p1207
aV141173
p1208
aV139769
p1209
aV139987
p1210
aV139981
p1211
aV134732
p1212
aV133420
p1213
aV142180
p1214
aV133427
p1215
aV135224
p1216
aV139966
p1217
aV139962
p1218
aV139960
p1219
aV138363
p1220
aV138367
p1221
aV138366
p1222
aV142671
p1223
aV138563
p1224
aV142079
p1225
aV133734
p1226
aV134028
p1227
aV134029
p1228
aV133551
p1229
aV142097
p1230
aV138964
p1231
aV138966
p1232
aV137296
p1233
aV137923
p1234
aV137298
p1235
aV137102
p1236
aV133134
p1237
aV133131
p1238
aV137105
p1239
aV142212
p1240
aV142213
p1241
aV142217
p1242
aV132556
p1243
aV132554
p1244
aV139263
p1245
aV137729
p1246
aV138811
p1247
aV142161
p1248
aV137722
p1249
aV142455
p1250
aV142322
p1251
aV142323
p1252
aV142320
p1253
aV134322
p1254
aV136418
p1255
aV136410
p1256
aV137433
p1257
aV140451
p1258
aV137438
p1259
aV133956
p1260
aV136520
p1261
aV136526
p1262
aV136753
p1263
aV135135
p1264
aV140038
p1265
aV135642
p1266
aV140035
p1267
aV140037
p1268
aV140030
p1269
aV136256
p1270
aV135646
p1271
aV140700
p1272
aV134518
p1273
aV134519
p1274
aV139420
p1275
aV139427
p1276
aV139425
p1277
aV132605
p1278
aV132602
p1279
aV140101
p1280
aV135980
p1281
aV135450
p1282
aV140695
p1283
aV134515
p1284
aV139516
p1285
aV141189
p1286
aV139512
p1287
aV139511
p1288
aV141185
p1289
aV140214
p1290
aV140740
p1291
aV140210
p1292
aV141347
p1293
aV141346
p1294
aV141617
p1295
aV141616
p1296
aV140585
p1297
aV140587
p1298
aV140589
p1299
aV134389
p1300
aV141981
p1301
aV141980
p1302
aV141986
p1303
aV139289
p1304
aV135704
p1305
aV135705
p1306
aV140966
p1307
aV140964
p1308
aV135382
p1309
aV138779
p1310
aV135380
p1311
aV141503
p1312
aV135387
p1313
aV135384
p1314
aV137918
p1315
aV134251
p1316
aV139608
p1317
aV135676
p1318
aV135677
p1319
aV135674
p1320
aV140369
p1321
aV139199
p1322
aV134811
p1323
aV138981
p1324
aV134817
p1325
aV134816
p1326
aV138980
p1327
aV138480
p1328
aV138486
p1329
aV135813
p1330
aV141763
p1331
aV138179
p1332
aV133632
p1333
aV133633
p1334
aV134654
p1335
aV135498
p1336
aV134650
p1337
aV135497
p1338
aV139774
p1339
aV139773
p1340
aV141168
p1341
aV134659
p1342
aV139994
p1343
aV133381
p1344
aV133388
p1345
aV135926
p1346
aV135928
p1347
aV140953
p1348
aV142662
p1349
aV142661
p1350
aV142667
p1351
aV142664
p1352
aV134032
p1353
aV134036
p1354
aV135207
p1355
aV138558
p1356
aV138007
p1357
aV138004
p1358
aV133561
p1359
aV138956
p1360
aV138957
p1361
aV137609
p1362
aV133565
p1363
aV137606
p1364
aV137600
p1365
aV133091
p1366
aV139317
p1367
aV137285
p1368
aV137284
p1369
aV137286
p1370
aV133140
p1371
aV133141
p1372
aV132949
p1373
aV133413
p1374
aV137119
p1375
aV134351
p1376
aV142205
p1377
aV142207
p1378
aV132543
p1379
aV132545
p1380
aV136646
p1381
aV132548
p1382
aV142533
p1383
aV142532
p1384
aV136640
p1385
aV136641
p1386
aV138821
p1387
aV140050
p1388
aV139738
p1389
aV138828
p1390
aV133895
p1391
aV133896
p1392
aV142443
p1393
aV136733
p1394
aV136886
p1395
aV142446
p1396
aV142332
p1397
aV142449
p1398
aV136888
p1399
aV136399
p1400
aV136462
p1401
aV136460
p1402
aV136466
p1403
aV137424
p1404
aV137427
p1405
aV137422
p1406
aV140230
p1407
aV136265
p1408
aV136260
p1409
aV139883
p1410
aV134993
p1411
aV136063
p1412
aV140024
p1413
aV141606
p1414
aV132766
p1415
aV142589
p1416
aV138035
p1417
aV135327
p1418
aV140115
p1419
aV132617
p1420
aV132610
p1421
aV139456
p1422
aV139560
p1423
aV135067
p1424
aV140207
p1425
aV140754
p1426
aV140757
p1427
aV140756
p1428
aV140208
p1429
aV141377
p1430
aV140593
p1431
aV138683
p1432
aV141825
p1433
aV140751
p1434
aV141978
p1435
aV140970
p1436
aV141972
p1437
aV138767
p1438
aV139184
p1439
aV141754
p1440
aV141086
p1441
aV141087
p1442
aV139368
p1443
aV136038
p1444
aV139365
p1445
aV141579
p1446
aV141126
p1447
aV135660
p1448
aV135662
p1449
aV135664
p1450
aV139444
p1451
aV140377
p1452
aV140376
p1453
aV139164
p1454
aV139165
p1455
aV134829
p1456
aV134824
p1457
aV134289
p1458
aV134826
p1459
aV134530
p1460
aV134823
p1461
aV138490
p1462
aV138495
p1463
aV137529
p1464
aV138499
p1465
aV135803
p1466
aV136844
p1467
aV141886
p1468
aV141887
p1469
aV139450
p1470
aV138166
p1471
aV138169
p1472
aV133622
p1473
aV133620
p1474
aV133626
p1475
aV141790
p1476
aV137155
p1477
aV141152
p1478
aV134627
p1479
aV141156
p1480
aV134625
p1481
aV141406
p1482
aV139703
p1483
aV134628
p1484
aV137157
p1485
aV134758
p1486
aV134759
p1487
aV133397
p1488
aV133396
p1489
aV133394
p1490
aV134751
p1491
aV134756
p1492
aV134754
p1493
aV134755
p1494
aV139942
p1495
aV139945
p1496
aV139948
p1497
aV133715
p1498
aV133714
p1499
aV138380
p1500
aV133719
p1501
aV139016
p1502
aV139015
p1503
aV138019
p1504
aV138545
p1505
aV138543
p1506
aV138010
p1507
aV139018
p1508
aV137638
p1509
aV138940
p1510
aV133579
p1511
aV137631
p1512
aV133574
p1513
aV137635
p1514
aV133151
p1515
aV132979
p1516
aV133154
p1517
aV133157
p1518
aV135246
p1519
aV132971
p1520
aV137126
p1521
aV132973
p1522
aV137256
p1523
aV137252
p1524
aV133881
p1525
aV133583
p1526
aV136655
p1527
aV132575
p1528
aV132570
p1529
aV136653
p1530
aV136652
p1531
aV138838
p1532
aV138835
p1533
aV137806
p1534
aV138766
p1535
aV136723
p1536
aV136897
p1537
aV136894
p1538
aV137380
p1539
aV138762
p1540
aV136478
p1541
aV136472
p1542
aV137411
p1543
aV133971
p1544
aV133974
p1545
aV133888
p1546
aV136095
p1547
aV136074
p1548
aV136071
p1549
aV132758
p1550
aV132597
p1551
aV132595
p1552
aV132592
p1553
aV132591
p1554
aV136380
p1555
aV133204
p1556
aV140161
p1557
aV132622
p1558
aV139166
p1559
aV141361
p1560
aV139579
p1561
aV140768
p1562
aV135015
p1563
aV140767
p1564
aV140762
p1565
aV140763
p1566
aV140568
p1567
aV141672
p1568
aV141969
p1569
aV140780
p1570
aV141965
p1571
aV135233
p1572
aV135722
p1573
aV141963
p1574
aV138712
p1575
aV138713
p1576
aV138711
p1577
aV141094
p1578
aV141561
p1579
aV141560
p1580
aV141565
p1581
aV141566
p1582
aV139372
p1583
aV139371
p1584
aV141492
p1585
aV139374
p1586
aV139179
p1587
aV140302
p1588
aV135127
p1589
aV135656
p1590
aV140306
p1591
aV140304
p1592
aV139396
p1593
aV135343
p1594
aV134299
p1595
aV135833
p1596
aV134527
p1597
aV134526
p1598
aV134291
p1599
aV134834
p1600
aV141898
p1601
aV134531
p1602
aV141787
p1603
aV141782
p1604
aV134630
p1605
aV134633
p1606
aV134632
p1607
aV141418
p1608
aV134637
p1609
aV140943
p1610
aV141147
p1611
aV139713
p1612
aV141142
p1613
aV139717
p1614
aV141412
p1615
aV134749
p1616
aV133368
p1617
aV133367
p1618
aV138496
p1619
aV133363
p1620
aV133361
p1621
aV135902
p1622
aV135906
p1623
aV135907
p1624
aV142047
p1625
aV133763
p1626
aV141881
p1627
aV142043
p1628
aV133767
p1629
aV133764
p1630
aV133765
p1631
aV133769
p1632
aV139007
p1633
aV138021
p1634
aV138022
p1635
aV139009
p1636
aV137979
p1637
aV133506
p1638
aV142226
p1639
aV141924
p1640
aV142229
p1641
aV141799
p1642
aV138444
p1643
aV138168
p1644
aV137133
p1645
aV133163
p1646
aV137713
p1647
aV133217
p1648
aV132568
p1649
aV133213
p1650
aV138848
p1651
aV133180
p1652
aV139665
p1653
aV137395
p1654
aV137626
p1655
aV137624
p1656
aV136868
p1657
aV136866
p1658
aV139661
p1659
aV136716
p1660
aV135488
p1661
aV133989
p1662
aV137407
p1663
aV141404
p1664
aV133980
p1665
aV138247
p1666
aV136043
p1667
aV136047
p1668
aV136049
p1669
aV132582
p1670
aV132588
p1671
aV136444
p1672
aV136447
p1673
aV136912
p1674
aV136441
p1675
aV136919
p1676
aV140175
p1677
aV133720
p1678
aV132637
p1679
aV132636
p1680
aV132634
p1681
aV141313
p1682
aV139545
p1683
aV141807
p1684
aV135002
p1685
aV140770
p1686
aV140748
p1687
aV140775
p1688
aV142009
p1689
aV140578
p1690
aV139045
p1691
aV135228
p1692
aV140798
p1693
aV135226
p1694
aV138702
p1695
aV137802
p1696
aV141226
p1697
aV141555
p1698
aV141550
p1699
aV141551
p1700
aV141552
p1701
aV141221
p1702
aV140311
p1703
aV140310
p1704
aV135641
p1705
aV139143
p1706
aV139144
p1707
aV135130
p1708
aV139147
p1709
aV135355
p1710
aV135822
p1711
aV135820
p1712
aV135352
p1713
aV135829
p1714
aV135358
p1715
aV138383
p1716
aV133493
p1717
aV139726
p1718
aV139720
p1719
aV134199
p1720
aV139723
p1721
aV138143
p1722
aV138142
p1723
aV134196
p1724
aV138633
p1725
aV134193
p1726
aV141428
p1727
aV141429
p1728
aV135734
p1729
aV140957
p1730
aV136294
p1731
aV141420
p1732
aV141130
p1733
aV141131
p1734
aV134352
p1735
aV135739
p1736
aV141427
p1737
aV134176
p1738
aV139131
p1739
aV134172
p1740
aV134171
p1741
aV133659
p1742
aV139133
p1743
aV133372
p1744
aV135918
p1745
aV137897
p1746
aV139926
p1747
aV137891
p1748
aV137892
p1749
aV133771
p1750
aV142030
p1751
aV142031
p1752
aV142037
p1753
aV138038
p1754
aV138528
p1755
aV141043
p1756
aV141041
p1757
aV139039
p1758
aV133651
p1759
aV138525
p1760
aV139502
p1761
aV138526
p1762
aV135280
p1763
aV134049
p1764
aV133514
p1765
aV133516
p1766
aV132915
p1767
aV132919
p1768
aV133179
p1769
aV138451
p1770
aV138459
p1771
aV142140
p1772
aV137270
p1773
aV137271
p1774
aV137272
p1775
aV137633
p1776
aV140414
p1777
aV133197
p1778
aV133196
p1779
aV138850
p1780
aV138852
p1781
aV138857
p1782
aV142499
p1783
aV136709
p1784
aV142369
p1785
aV137871
p1786
aV142492
p1787
aV136872
p1788
aV135265
p1789
aV139292
p1790
aV135266
p1791
aV137471
p1792
aV133992
p1793
aV136677
p1794
aV142560
p1795
aV142569
p1796
aV136299
p1797
aV136298
p1798
aV135306
p1799
aV136292
p1800
aV137500
p1801
aV136056
p1802
aV134395
p1803
aV136052
p1804
aV141090
p1805
aV136453
p1806
aV136904
p1807
aV136906
p1808
aV141877
p1809
atRp1810
.