(dp1
I0
(lp2
I23
aI22
aI1
aI2
aI3
asI1
(lp3
I23
aI22
aI2
aI3
aI4
asI2
(lp4
I23
aI22
aI1
aI3
aI4
asI3
(lp5
I9
aI21
aI19
aI17
aI7
asI4
(lp6
I10
aI22
aI5
aI11
aI16
asI5
(lp7
I11
aI21
aI4
aI10
aI22
asI6
(lp8
I20
aI14
aI11
aI5
aI21
asI7
(lp9
I19
aI9
aI3
aI13
aI14
asI8
(lp10
I18
aI12
aI7
aI14
aI22
asI9
(lp11
I3
aI21
aI19
aI17
aI7
asI10
(lp12
I4
aI22
aI11
aI5
aI16
asI11
(lp13
I5
aI21
aI10
aI4
aI15
asI12
(lp14
I16
aI8
aI13
aI18
aI7
asI13
(lp15
I7
aI19
aI15
aI12
aI3
asI14
(lp16
I6
aI20
aI19
aI7
aI17
asI15
(lp17
I11
aI5
aI13
aI9
aI3
asI16
(lp18
I4
aI10
aI22
aI12
aI15
asI17
(lp19
I3
aI9
aI22
aI4
aI14
asI18
(lp20
I8
aI22
aI19
aI12
aI7
asI19
(lp21
I7
aI3
aI9
aI14
aI13
asI20
(lp22
I6
aI14
aI19
aI7
aI23
asI21
(lp23
I5
aI11
aI9
aI3
aI22
asI22
(lp24
I4
aI10
aI17
aI5
aI21
asI23
(lp25
I4
aI3
aI10
aI9
aI17
as.